; Function Attrs: nounwind uwtable
define hidden void @bootstrap_free(ptr noundef %ptr) local_unnamed_addr #1 {
entry:
  %cmp = icmp eq ptr %ptr, null
  br i1 %cmp, label %return, label %if.end

if.end:                                           ; preds = %entry
  tail call fastcc void @a0idalloc(ptr noundef nonnull %ptr, i1 noundef zeroext false)
  br label %return

return:                                           ; preds = %entry, %if.end
  ret void
}